; ModuleID = '44/1391.c'
source_filename = "44/1391.c"
target datalayout = "e-m:e-p270:32:32-p271:32:32-p272:64:64-i64:64-f80:128-n8:16:32:64-S128"
target triple = "x86_64-pc-linux-gnu"

@.str = private unnamed_addr constant [3 x i8] c"%d\00", align 1
@.str.1 = private unnamed_addr constant [4 x i8] c"%d\0A\00", align 1

; Function Attrs: noinline nounwind uwtable
define dso_local i32 @invert(i32 %0) #0 {
  %2 = alloca i32, align 4
  %3 = alloca i32, align 4
  store i32 %0, i32* %2, align 4
  store i32 0, i32* %3, align 4
  %4 = load i32, i32* %2, align 4
  br label %5

5:                                                ; preds = %14, %1
  %6 = load i32, i32* %2, align 4
  %7 = icmp ne i32 %6, 0
  br i1 %7, label %8, label %17

8:                                                ; preds = %5
  %9 = load i32, i32* %2, align 4
  %10 = srem i32 %9, 10
  %11 = load i32, i32* %3, align 4
  %12 = mul nsw i32 %11, 10
  %13 = add nsw i32 %10, %12
  store i32 %13, i32* %3, align 4
  br label %14

14:                                               ; preds = %8
  %15 = load i32, i32* %2, align 4
  %16 = sdiv i32 %15, 10
  store i32 %16, i32* %2, align 4
  br label %5

17:                                               ; preds = %5
  %18 = load i32, i32* %3, align 4
  ret i32 %18
}

; Function Attrs: noinline nounwind uwtable
define dso_local i32 @main() #0 {
  %1 = alloca i32, align 4
  %2 = alloca i32, align 4
  %3 = alloca [6 x i32], align 16
  %4 = alloca [6 x i32], align 16
  store i32 0, i32* %1, align 4
  store i32 0, i32* %2, align 4
  br label %5

5:                                                ; preds = %13, %0
  %6 = load i32, i32* %2, align 4
  %7 = icmp slt i32 %6, 6
  br i1 %7, label %8, label %16

8:                                                ; preds = %5
  %9 = load i32, i32* %2, align 4
  %10 = sext i32 %9 to i64
  %11 = getelementptr inbounds [6 x i32], [6 x i32]* %3, i64 0, i64 %10
  %12 = call i32 (i8*, ...) @__isoc99_scanf(i8* getelementptr inbounds ([3 x i8], [3 x i8]* @.str, i64 0, i64 0), i32* %11)
  br label %13

13:                                               ; preds = %8
  %14 = load i32, i32* %2, align 4
  %15 = add nsw i32 %14, 1
  store i32 %15, i32* %2, align 4
  br label %5

16:                                               ; preds = %5
  store i32 0, i32* %2, align 4
  br label %17

17:                                               ; preds = %29, %16
  %18 = load i32, i32* %2, align 4
  %19 = icmp slt i32 %18, 6
  br i1 %19, label %20, label %32

20:                                               ; preds = %17
  %21 = load i32, i32* %2, align 4
  %22 = sext i32 %21 to i64
  %23 = getelementptr inbounds [6 x i32], [6 x i32]* %3, i64 0, i64 %22
  %24 = load i32, i32* %23, align 4
  %25 = call i32 @invert(i32 %24)
  %26 = load i32, i32* %2, align 4
  %27 = sext i32 %26 to i64
  %28 = getelementptr inbounds [6 x i32], [6 x i32]* %4, i64 0, i64 %27
  store i32 %25, i32* %28, align 4
  br label %29

29:                                               ; preds = %20
  %30 = load i32, i32* %2, align 4
  %31 = add nsw i32 %30, 1
  store i32 %31, i32* %2, align 4
  br label %17

32:                                               ; preds = %17
  store i32 0, i32* %2, align 4
  br label %33

33:                                               ; preds = %42, %32
  %34 = load i32, i32* %2, align 4
  %35 = icmp slt i32 %34, 6
  br i1 %35, label %36, label %45

36:                                               ; preds = %33
  %37 = load i32, i32* %2, align 4
  %38 = sext i32 %37 to i64
  %39 = getelementptr inbounds [6 x i32], [6 x i32]* %4, i64 0, i64 %38
  %40 = load i32, i32* %39, align 4
  %41 = call i32 (i8*, ...) @printf(i8* getelementptr inbounds ([4 x i8], [4 x i8]* @.str.1, i64 0, i64 0), i32 %40)
  br label %42

42:                                               ; preds = %36
  %43 = load i32, i32* %2, align 4
  %44 = add nsw i32 %43, 1
  store i32 %44, i32* %2, align 4
  br label %33

45:                                               ; preds = %33
  %46 = load i32, i32* %1, align 4
  ret i32 %46
}

declare dso_local i32 @__isoc99_scanf(i8*, ...) #1

declare dso_local i32 @printf(i8*, ...) #1


!llvm.module.flags = !{!0}
!llvm.ident = !{!1}

!0 = !{i32 1, !"wchar_size", i32 4}
!1 = !{!"clang version 10.0.0-4ubuntu1 "}
